; Function Attrs: nounwind uwtable
define noundef i32 @Bmc_CollapseExpandRound2(ptr noundef %0, ptr noundef readonly captures(none) %1, ptr noundef captures(none) initializes((4, 8)) %2, i32 noundef %3, i32 noundef %4) local_unnamed_addr #0 {
  %6 = getelementptr inbounds nuw i8, ptr %2, i64 4
  store i32 0, ptr %6, align 4, !tbaa !28
  %7 = getelementptr i8, ptr %1, i64 4
  %.val3946 = load i32, ptr %7, align 4, !tbaa !28
  %8 = icmp sgt i32 %.val3946, 0
  br i1 %8, label %.lr.ph, label %.critedge

.lr.ph:                                           ; preds = %5
  %9 = getelementptr i8, ptr %1, i64 8
  %.phi.trans.insert.i = getelementptr inbounds nuw i8, ptr %2, i64 8
  br label %10

10:                                               ; preds = %.lr.ph, %42
  %.val3955 = phi i32 [ %.val3946, %.lr.ph ], [ %.val39, %42 ]
  %indvars.iv = phi i64 [ 0, %.lr.ph ], [ %indvars.iv.next, %42 ]
  %.val41 = load ptr, ptr %9, align 8, !tbaa !29
  %11 = getelementptr inbounds nuw i32, ptr %.val41, i64 %indvars.iv
  %12 = load i32, ptr %11, align 4, !tbaa !30
  %.not34 = icmp eq i32 %12, -1
  br i1 %.not34, label %42, label %13

13:                                               ; preds = %10
  %14 = load i32, ptr %6, align 4, !tbaa !28
  %15 = load i32, ptr %2, align 8, !tbaa !43
  %16 = icmp eq i32 %14, %15
  br i1 %16, label %17, label %.Vec_IntGrow.exit10_crit_edge.i

.Vec_IntGrow.exit10_crit_edge.i:                  ; preds = %13
  %.pre.i = load ptr, ptr %.phi.trans.insert.i, align 8, !tbaa !29
  br label %Vec_IntPush.exit

17:                                               ; preds = %13
  %18 = icmp slt i32 %14, 16
  br i1 %18, label %19, label %26

19:                                               ; preds = %17
  %20 = load ptr, ptr %.phi.trans.insert.i, align 8, !tbaa !29
  %.not9.i.i = icmp eq ptr %20, null
  br i1 %.not9.i.i, label %23, label %21

21:                                               ; preds = %19
  %22 = tail call dereferenceable_or_null(64) ptr @realloc(ptr noundef nonnull %20, i64 noundef 64) #14
  br label %Vec_IntGrow.exit.i

23:                                               ; preds = %19
  %24 = tail call noalias dereferenceable_or_null(64) ptr @malloc(i64 noundef 64) #15
  br label %Vec_IntGrow.exit.i

Vec_IntGrow.exit.i:                               ; preds = %23, %21
  %25 = phi ptr [ %22, %21 ], [ %24, %23 ]
  store ptr %25, ptr %.phi.trans.insert.i, align 8, !tbaa !29
  store i32 16, ptr %2, align 8, !tbaa !43
  br label %Vec_IntPush.exit

26:                                               ; preds = %17
  %27 = shl nuw nsw i32 %14, 1
  %28 = load ptr, ptr %.phi.trans.insert.i, align 8, !tbaa !29
  %.not9.i9.i = icmp eq ptr %28, null
  %29 = zext nneg i32 %27 to i64
  %30 = shl nuw nsw i64 %29, 2
  br i1 %.not9.i9.i, label %33, label %31

31:                                               ; preds = %26
  %32 = tail call ptr @realloc(ptr noundef nonnull %28, i64 noundef %30) #14
  br label %35

33:                                               ; preds = %26
  %34 = tail call noalias ptr @malloc(i64 noundef %30) #15
  br label %35

35:                                               ; preds = %33, %31
  %36 = phi ptr [ %32, %31 ], [ %34, %33 ]
  store ptr %36, ptr %.phi.trans.insert.i, align 8, !tbaa !29
  store i32 %27, ptr %2, align 8, !tbaa !43
  br label %Vec_IntPush.exit

Vec_IntPush.exit:                                 ; preds = %.Vec_IntGrow.exit10_crit_edge.i, %Vec_IntGrow.exit.i, %35
  %37 = phi ptr [ %.pre.i, %.Vec_IntGrow.exit10_crit_edge.i ], [ %36, %35 ], [ %25, %Vec_IntGrow.exit.i ]
  %38 = load i32, ptr %6, align 4, !tbaa !28
  %39 = add nsw i32 %38, 1
  store i32 %39, ptr %6, align 4, !tbaa !28
  %40 = sext i32 %38 to i64
  %41 = getelementptr inbounds i32, ptr %37, i64 %40
  store i32 %12, ptr %41, align 4, !tbaa !30
  %.val39.pre = load i32, ptr %7, align 4, !tbaa !28
  br label %42

42:                                               ; preds = %10, %Vec_IntPush.exit
  %.val39 = phi i32 [ %.val3955, %10 ], [ %.val39.pre, %Vec_IntPush.exit ]
  %indvars.iv.next = add nuw nsw i64 %indvars.iv, 1
  %43 = sext i32 %.val39 to i64
  %44 = icmp slt i64 %indvars.iv.next, %43
  br i1 %44, label %10, label %.critedge, !llvm.loop !86

.critedge:                                        ; preds = %42, %5
  %45 = icmp sgt i32 %4, -1
  br i1 %45, label %46, label %.critedge36

46:                                               ; preds = %.critedge
  %47 = tail call i32 @sat_solver_push(ptr noundef %0, i32 noundef %4) #16
  %48 = getelementptr i8, ptr %2, i64 8
  %.val43 = load ptr, ptr %48, align 8, !tbaa !29
  %.val38 = load i32, ptr %6, align 4, !tbaa !28
  %49 = tail call i32 @sat_solver_minimize_assumptions(ptr noundef %0, ptr noundef %.val43, i32 noundef %.val38, i32 noundef %3) #16
  store i32 %49, ptr %6, align 4, !tbaa !28
  tail call void @sat_solver_pop(ptr noundef %0) #16
  br label %52

.critedge36:                                      ; preds = %.critedge
  %50 = getelementptr i8, ptr %2, i64 8
  %.val42 = load ptr, ptr %50, align 8, !tbaa !29
  %.val = load i32, ptr %6, align 4, !tbaa !28
  %51 = tail call i32 @sat_solver_minimize_assumptions(ptr noundef %0, ptr noundef %.val42, i32 noundef %.val, i32 noundef %3) #16
  store i32 %51, ptr %6, align 4, !tbaa !28
  br label %52

52:                                               ; preds = %.critedge36, %46
  %.val3748 = load i32, ptr %7, align 4, !tbaa !28
  %53 = icmp sgt i32 %.val3748, 0
  br i1 %53, label %.lr.ph50, label %.critedge2

.lr.ph50:                                         ; preds = %52
  %54 = getelementptr i8, ptr %1, i64 8
  %.val40 = load ptr, ptr %54, align 8, !tbaa !29
  %55 = getelementptr inbounds nuw i8, ptr %2, i64 8
  br label %56

56:                                               ; preds = %.lr.ph50, %Vec_IntFind.exit
  %.val3757 = phi i32 [ %.val3748, %.lr.ph50 ], [ %.val37, %Vec_IntFind.exit ]
  %indvars.iv52 = phi i64 [ 0, %.lr.ph50 ], [ %indvars.iv.next53, %Vec_IntFind.exit ]
  %57 = getelementptr inbounds nuw i32, ptr %.val40, i64 %indvars.iv52
  %58 = load i32, ptr %57, align 4, !tbaa !30
  %.not = icmp eq i32 %58, -1
  br i1 %.not, label %Vec_IntFind.exit, label %59

59:                                               ; preds = %56
  %60 = load i32, ptr %6, align 4, !tbaa !28
  %61 = icmp sgt i32 %60, 0
  br i1 %61, label %.lr.ph.i, label %Vec_IntFind.exit.thread

.lr.ph.i:                                         ; preds = %59
  %62 = load ptr, ptr %55, align 8, !tbaa !29
  %wide.trip.count.i = zext nneg i32 %60 to i64
  br label %63

63:                                               ; preds = %67, %.lr.ph.i
  %indvars.iv.i = phi i64 [ 0, %.lr.ph.i ], [ %indvars.iv.next.i, %67 ]
  %64 = getelementptr inbounds nuw i32, ptr %62, i64 %indvars.iv.i
  %65 = load i32, ptr %64, align 4, !tbaa !30
  %66 = icmp eq i32 %65, %58
  br i1 %66, label %Vec_IntFind.exit, label %67

67:                                               ; preds = %63
  %indvars.iv.next.i = add nuw nsw i64 %indvars.iv.i, 1
  %exitcond.not.i = icmp eq i64 %indvars.iv.next.i, %wide.trip.count.i
  br i1 %exitcond.not.i, label %Vec_IntFind.exit.thread, label %63, !llvm.loop !87

Vec_IntFind.exit.thread:                          ; preds = %67, %59
  store i32 -1, ptr %57, align 4, !tbaa !30
  %.val37.pre = load i32, ptr %7, align 4, !tbaa !28
  br label %Vec_IntFind.exit

Vec_IntFind.exit:                                 ; preds = %63, %56, %Vec_IntFind.exit.thread
  %.val37 = phi i32 [ %.val3757, %56 ], [ %.val37.pre, %Vec_IntFind.exit.thread ], [ %.val3757, %63 ]
  %indvars.iv.next53 = add nuw nsw i64 %indvars.iv52, 1
  %68 = sext i32 %.val37 to i64
  %69 = icmp slt i64 %indvars.iv.next53, %68
  br i1 %69, label %56, label %.critedge2, !llvm.loop !88

.critedge2:                                       ; preds = %Vec_IntFind.exit, %52
  ret i32 0
}